target datalayout = "e-m:e-p270:32:32-p271:32:32-p272:64:64-i64:64-i128:128-f80:128-n8:16:32:64-S128"
target triple = "x86_64-pc-linux-gnu"

%struct.Curl_cfilter = type { ptr, ptr, ptr, ptr, i32, i8 }
%struct.Curl_cftype = type { ptr, i32, i32, ptr, ptr, ptr, ptr, ptr, ptr, ptr, ptr, ptr, ptr, ptr, ptr, ptr }

; Function Attrs: nounwind uwtable
define dso_local i32 @Curl_conn_cf_cntrl(ptr noundef %0, ptr noundef %1, i1 noundef zeroext %2, i32 noundef %3, i32 noundef %4, ptr noundef %5) #0 {
  %7 = alloca ptr, align 8
  %8 = alloca ptr, align 8
  %9 = alloca i8, align 1
  %10 = alloca i32, align 4
  %11 = alloca i32, align 4
  %12 = alloca ptr, align 8
  %13 = alloca i32, align 4
  store ptr %0, ptr %7, align 8, !tbaa !4
  store ptr %1, ptr %8, align 8, !tbaa !9
  %14 = zext i1 %2 to i8
  store i8 %14, ptr %9, align 1, !tbaa !13
  store i32 %3, ptr %10, align 4, !tbaa !53
  store i32 %4, ptr %11, align 4, !tbaa !53
  store ptr %5, ptr %12, align 8, !tbaa !57
  call void @llvm.lifetime.start.p0(i64 4, ptr %13) #5
  store i32 0, ptr %13, align 4, !tbaa !53
  br label %15

15:                                               ; preds = %45, %6
  %16 = load ptr, ptr %7, align 8, !tbaa !4
  %17 = icmp ne ptr %16, null
  br i1 %17, label %18, label %49

18:                                               ; preds = %15
  %19 = load ptr, ptr %7, align 8, !tbaa !4
  %20 = getelementptr inbounds nuw %struct.Curl_cfilter, ptr %19, i32 0, i32 0
  %21 = load ptr, ptr %20, align 8, !tbaa !24
  %22 = getelementptr inbounds nuw %struct.Curl_cftype, ptr %21, i32 0, i32 12
  %23 = load ptr, ptr %22, align 8, !tbaa !163
  %24 = icmp eq ptr @Curl_cf_def_cntrl, %23
  br i1 %24, label %25, label %26

25:                                               ; preds = %18
  br label %45

26:                                               ; preds = %18
  %27 = load ptr, ptr %7, align 8, !tbaa !4
  %28 = getelementptr inbounds nuw %struct.Curl_cfilter, ptr %27, i32 0, i32 0
  %29 = load ptr, ptr %28, align 8, !tbaa !24
  %30 = getelementptr inbounds nuw %struct.Curl_cftype, ptr %29, i32 0, i32 12
  %31 = load ptr, ptr %30, align 8, !tbaa !163
  %32 = load ptr, ptr %7, align 8, !tbaa !4
  %33 = load ptr, ptr %8, align 8, !tbaa !9
  %34 = load i32, ptr %10, align 4, !tbaa !53
  %35 = load i32, ptr %11, align 4, !tbaa !53
  %36 = load ptr, ptr %12, align 8, !tbaa !57
  %37 = call i32 %31(ptr noundef %32, ptr noundef %33, i32 noundef %34, i32 noundef %35, ptr noundef %36)
  store i32 %37, ptr %13, align 4, !tbaa !53
  %38 = load i8, ptr %9, align 1, !tbaa !13, !range !60, !noundef !61
  %39 = trunc i8 %38 to i1
  br i1 %39, label %44, label %40

40:                                               ; preds = %26
  %41 = load i32, ptr %13, align 4, !tbaa !53
  %42 = icmp ne i32 %41, 0
  br i1 %42, label %43, label %44

43:                                               ; preds = %40
  br label %49

44:                                               ; preds = %40, %26
  br label %45

45:                                               ; preds = %44, %25
  %46 = load ptr, ptr %7, align 8, !tbaa !4
  %47 = getelementptr inbounds nuw %struct.Curl_cfilter, ptr %46, i32 0, i32 1
  %48 = load ptr, ptr %47, align 8, !tbaa !19
  store ptr %48, ptr %7, align 8, !tbaa !4
  br label %15, !llvm.loop !164

49:                                               ; preds = %43, %15
  %50 = load i32, ptr %13, align 4, !tbaa !53
  call void @llvm.lifetime.end.p0(i64 4, ptr %13) #5
  ret i32 %50
}