; Function Attrs: nounwind uwtable
define dso_local i32 @Curl_conn_cf_cntrl(ptr noundef %0, ptr noundef %1, i1 noundef zeroext %2, i32 noundef %3, i32 noundef %4, ptr noundef %5) local_unnamed_addr #1 {
  %.not1517 = icmp eq ptr %0, null
  br i1 %.not1517, label %._crit_edge, label %.lr.ph

.lr.ph:                                           ; preds = %6
  br i1 %2, label %.lr.ph.split.us, label %.lr.ph.split

.lr.ph.split.us:                                  ; preds = %.lr.ph, %13
  %.019.us = phi i32 [ %.2.us, %13 ], [ 0, %.lr.ph ]
  %.01218.us = phi ptr [ %15, %13 ], [ %0, %.lr.ph ]
  %7 = load ptr, ptr %.01218.us, align 8, !tbaa !15
  %8 = getelementptr inbounds nuw i8, ptr %7, i64 88
  %9 = load ptr, ptr %8, align 8, !tbaa !129
  %10 = icmp eq ptr %9, @Curl_cf_def_cntrl
  br i1 %10, label %13, label %11

11:                                               ; preds = %.lr.ph.split.us
  %12 = tail call i32 %9(ptr noundef nonnull %.01218.us, ptr noundef %1, i32 noundef %3, i32 noundef %4, ptr noundef %5) #12
  br label %13

13:                                               ; preds = %11, %.lr.ph.split.us
  %.2.us = phi i32 [ %.019.us, %.lr.ph.split.us ], [ %12, %11 ]
  %14 = getelementptr inbounds nuw i8, ptr %.01218.us, i64 8
  %15 = load ptr, ptr %14, align 8, !tbaa !8
  %.not15.us = icmp eq ptr %15, null
  br i1 %.not15.us, label %._crit_edge, label %.lr.ph.split.us, !llvm.loop !130

.lr.ph.split:                                     ; preds = %.lr.ph, %23
  %.01218 = phi ptr [ %25, %23 ], [ %0, %.lr.ph ]
  %16 = load ptr, ptr %.01218, align 8, !tbaa !15
  %17 = getelementptr inbounds nuw i8, ptr %16, i64 88
  %18 = load ptr, ptr %17, align 8, !tbaa !129
  %19 = icmp eq ptr %18, @Curl_cf_def_cntrl
  br i1 %19, label %23, label %20

20:                                               ; preds = %.lr.ph.split
  %21 = tail call i32 %18(ptr noundef nonnull %.01218, ptr noundef %1, i32 noundef %3, i32 noundef %4, ptr noundef %5) #12
  %22 = icmp eq i32 %21, 0
  br i1 %22, label %23, label %._crit_edge

23:                                               ; preds = %20, %.lr.ph.split
  %24 = getelementptr inbounds nuw i8, ptr %.01218, i64 8
  %25 = load ptr, ptr %24, align 8, !tbaa !8
  %.not15 = icmp eq ptr %25, null
  br i1 %.not15, label %._crit_edge, label %.lr.ph.split, !llvm.loop !130

._crit_edge:                                      ; preds = %23, %20, %13, %6
  %.1 = phi i32 [ 0, %6 ], [ %.2.us, %13 ], [ %21, %20 ], [ 0, %23 ]
  ret i32 %.1
}